; Function Attrs: mustprogress uwtable
define void @_ZNK8IOPlugin13reportWarningERK7QString(ptr noundef nonnull align 8 dereferenceable(16) %0, ptr noundef nonnull align 8 dereferenceable(8) %1) local_unnamed_addr #1 align 2 personality ptr @__gxx_personality_v0 {
  %3 = alloca %"class.std::__cxx11::basic_string", align 8
  %4 = alloca %class.QString, align 8
  %5 = load ptr, ptr %1, align 8
  %6 = getelementptr inbounds i8, ptr %5, i64 4
  %7 = load i32, ptr %6, align 4
  %8 = icmp eq i32 %7, 0
  br i1 %8, label %_ZN7QStringD2Ev.exit, label %9

9:                                                ; preds = %2
  %10 = load ptr, ptr %0, align 8
  %11 = getelementptr i8, ptr %10, i64 -32
  %12 = load i64, ptr %11, align 8
  %13 = getelementptr inbounds i8, ptr %0, i64 %12
  call void @_ZNK7QString11toStdStringB5cxx11Ev(ptr dead_on_unwind nonnull writable sret(%"class.std::__cxx11::basic_string") align 8 %3, ptr noundef nonnull align 8 dereferenceable(8) %1)
  invoke void @_ZNK19MeshLabPluginLogger3logEN11GLLogStream6LevelsERKNSt7__cxx1112basic_stringIcSt11char_traitsIcESaIcEEE(ptr noundef nonnull align 8 dereferenceable(16) %13, i32 noundef 1, ptr noundef nonnull align 8 dereferenceable(32) %3)
          to label %14 unwind label %24

14:                                               ; preds = %9
  call void @_ZNSt7__cxx1112basic_stringIcSt11char_traitsIcESaIcEED1Ev(ptr noundef nonnull align 8 dereferenceable(32) %3) #23
  call void @_ZN7QString15fromUtf8_helperEPKci(ptr dead_on_unwind nonnull writable sret(%class.QString) align 8 %4, ptr noundef nonnull @.str.6, i32 noundef 1)
  %15 = invoke noundef nonnull align 8 dereferenceable(8) ptr @_ZN7QString6appendERKS_(ptr noundef nonnull align 8 dereferenceable(8) %4, ptr noundef nonnull align 8 dereferenceable(8) %1)
          to label %_ZplPKcRK7QString.exit unwind label %16

common.resume:                                    ; preds = %24, %26, %16
  %common.resume.op = phi { ptr, i32 } [ %17, %16 ], [ %27, %26 ], [ %25, %24 ]
  resume { ptr, i32 } %common.resume.op

16:                                               ; preds = %14
  %17 = landingpad { ptr, i32 }
          cleanup
  call void @_ZN7QStringD2Ev(ptr noundef nonnull align 8 dereferenceable(8) %4) #23
  br label %common.resume

_ZplPKcRK7QString.exit:                           ; preds = %14
  %18 = getelementptr inbounds i8, ptr %0, i64 8
  %19 = invoke noundef nonnull align 8 dereferenceable(8) ptr @_ZN7QString6appendERKS_(ptr noundef nonnull align 8 dereferenceable(8) %18, ptr noundef nonnull align 8 dereferenceable(8) %4)
          to label %_ZN7QStringpLERKS_.exit unwind label %26

_ZN7QStringpLERKS_.exit:                          ; preds = %_ZplPKcRK7QString.exit
  %20 = load ptr, ptr %4, align 8
  %21 = load atomic i32, ptr %20 monotonic, align 4
  switch i32 %21, label %_ZN9QtPrivate8RefCount5derefEv.exit.i [
    i32 0, label %_ZN9QtPrivate8RefCount5derefEv.exit.thread2.i
    i32 -1, label %_ZN7QStringD2Ev.exit
  ]

_ZN9QtPrivate8RefCount5derefEv.exit.i:            ; preds = %_ZN7QStringpLERKS_.exit
  %22 = atomicrmw sub ptr %20, i32 1 seq_cst, align 4
  %.not.i = icmp eq i32 %22, 1
  br i1 %.not.i, label %_ZN9QtPrivate8RefCount5derefEv.exit._ZN9QtPrivate8RefCount5derefEv.exit.thread2_crit_edge.i, label %_ZN7QStringD2Ev.exit

_ZN9QtPrivate8RefCount5derefEv.exit._ZN9QtPrivate8RefCount5derefEv.exit.thread2_crit_edge.i: ; preds = %_ZN9QtPrivate8RefCount5derefEv.exit.i
  %.pre.i = load ptr, ptr %4, align 8
  br label %_ZN9QtPrivate8RefCount5derefEv.exit.thread2.i

_ZN9QtPrivate8RefCount5derefEv.exit.thread2.i:    ; preds = %_ZN9QtPrivate8RefCount5derefEv.exit._ZN9QtPrivate8RefCount5derefEv.exit.thread2_crit_edge.i, %_ZN7QStringpLERKS_.exit
  %23 = phi ptr [ %.pre.i, %_ZN9QtPrivate8RefCount5derefEv.exit._ZN9QtPrivate8RefCount5derefEv.exit.thread2_crit_edge.i ], [ %20, %_ZN7QStringpLERKS_.exit ]
  call void @_ZN10QArrayData10deallocateEPS_mm(ptr noundef %23, i64 noundef 2, i64 noundef 8) #23
  br label %_ZN7QStringD2Ev.exit

24:                                               ; preds = %9
  %25 = landingpad { ptr, i32 }
          cleanup
  call void @_ZNSt7__cxx1112basic_stringIcSt11char_traitsIcESaIcEED1Ev(ptr noundef nonnull align 8 dereferenceable(32) %3) #23
  br label %common.resume

26:                                               ; preds = %_ZplPKcRK7QString.exit
  %27 = landingpad { ptr, i32 }
          cleanup
  call void @_ZN7QStringD2Ev(ptr noundef nonnull align 8 dereferenceable(8) %4) #23
  br label %common.resume

_ZN7QStringD2Ev.exit:                             ; preds = %_ZN9QtPrivate8RefCount5derefEv.exit.thread2.i, %_ZN9QtPrivate8RefCount5derefEv.exit.i, %_ZN7QStringpLERKS_.exit, %2
  ret void
}